target datalayout = "e-m:e-p270:32:32-p271:32:32-p272:64:64-i64:64-i128:128-f80:128-n8:16:32:64-S128"
target triple = "x86_64-pc-linux-gnu"

%struct.bignum_st = type { ptr, i32, i32, i32, i32 }

; Function Attrs: nounwind uwtable
define hidden i32 @BN_sub_word(ptr noundef %0, i64 noundef %1) #0 {
  %3 = alloca i32, align 4
  %4 = alloca ptr, align 8
  %5 = alloca i64, align 8
  %6 = alloca i32, align 4
  %7 = alloca i32, align 4
  store ptr %0, ptr %4, align 8, !tbaa !6
  store i64 %1, ptr %5, align 8, !tbaa !19
  call void @llvm.lifetime.start.p0(i64 4, ptr %6) #4
  %8 = load i64, ptr %5, align 8, !tbaa !19
  %9 = and i64 %8, -1
  store i64 %9, ptr %5, align 8, !tbaa !19
  %10 = load i64, ptr %5, align 8, !tbaa !19
  %11 = icmp ne i64 %10, 0
  br i1 %11, label %13, label %12

12:                                               ; preds = %2
  store i32 1, ptr %3, align 4
  store i32 1, ptr %7, align 4
  br label %131

13:                                               ; preds = %2
  %14 = load ptr, ptr %4, align 8, !tbaa !6
  %15 = call i32 @BN_is_zero(ptr noundef %14)
  %16 = icmp ne i32 %15, 0
  br i1 %16, label %17, label %27

17:                                               ; preds = %13
  %18 = load ptr, ptr %4, align 8, !tbaa !6
  %19 = load i64, ptr %5, align 8, !tbaa !19
  %20 = call i32 @BN_set_word(ptr noundef %18, i64 noundef %19)
  store i32 %20, ptr %6, align 4, !tbaa !15
  %21 = load i32, ptr %6, align 4, !tbaa !15
  %22 = icmp ne i32 %21, 0
  br i1 %22, label %23, label %25

23:                                               ; preds = %17
  %24 = load ptr, ptr %4, align 8, !tbaa !6
  call void @BN_set_negative(ptr noundef %24, i32 noundef 1)
  br label %25

25:                                               ; preds = %23, %17
  %26 = load i32, ptr %6, align 4, !tbaa !15
  store i32 %26, ptr %3, align 4
  store i32 1, ptr %7, align 4
  br label %131

27:                                               ; preds = %13
  %28 = load ptr, ptr %4, align 8, !tbaa !6
  %29 = getelementptr inbounds nuw %struct.bignum_st, ptr %28, i32 0, i32 3
  %30 = load i32, ptr %29, align 8, !tbaa !11
  %31 = icmp ne i32 %30, 0
  br i1 %31, label %32, label %41

32:                                               ; preds = %27
  %33 = load ptr, ptr %4, align 8, !tbaa !6
  %34 = getelementptr inbounds nuw %struct.bignum_st, ptr %33, i32 0, i32 3
  store i32 0, ptr %34, align 8, !tbaa !11
  %35 = load ptr, ptr %4, align 8, !tbaa !6
  %36 = load i64, ptr %5, align 8, !tbaa !19
  %37 = call i32 @BN_add_word(ptr noundef %35, i64 noundef %36)
  store i32 %37, ptr %6, align 4, !tbaa !15
  %38 = load ptr, ptr %4, align 8, !tbaa !6
  %39 = getelementptr inbounds nuw %struct.bignum_st, ptr %38, i32 0, i32 3
  store i32 1, ptr %39, align 8, !tbaa !11
  %40 = load i32, ptr %6, align 4, !tbaa !15
  store i32 %40, ptr %3, align 4
  store i32 1, ptr %7, align 4
  br label %131

41:                                               ; preds = %27
  %42 = load ptr, ptr %4, align 8, !tbaa !6
  %43 = getelementptr inbounds nuw %struct.bignum_st, ptr %42, i32 0, i32 1
  %44 = load i32, ptr %43, align 8, !tbaa !16
  %45 = icmp eq i32 %44, 1
  br i1 %45, label %46, label %68

46:                                               ; preds = %41
  %47 = load ptr, ptr %4, align 8, !tbaa !6
  %48 = getelementptr inbounds nuw %struct.bignum_st, ptr %47, i32 0, i32 0
  %49 = load ptr, ptr %48, align 8, !tbaa !17
  %50 = getelementptr inbounds i64, ptr %49, i64 0
  %51 = load i64, ptr %50, align 8, !tbaa !19
  %52 = load i64, ptr %5, align 8, !tbaa !19
  %53 = icmp ult i64 %51, %52
  br i1 %53, label %54, label %68

54:                                               ; preds = %46
  %55 = load i64, ptr %5, align 8, !tbaa !19
  %56 = load ptr, ptr %4, align 8, !tbaa !6
  %57 = getelementptr inbounds nuw %struct.bignum_st, ptr %56, i32 0, i32 0
  %58 = load ptr, ptr %57, align 8, !tbaa !17
  %59 = getelementptr inbounds i64, ptr %58, i64 0
  %60 = load i64, ptr %59, align 8, !tbaa !19
  %61 = sub i64 %55, %60
  %62 = load ptr, ptr %4, align 8, !tbaa !6
  %63 = getelementptr inbounds nuw %struct.bignum_st, ptr %62, i32 0, i32 0
  %64 = load ptr, ptr %63, align 8, !tbaa !17
  %65 = getelementptr inbounds i64, ptr %64, i64 0
  store i64 %61, ptr %65, align 8, !tbaa !19
  %66 = load ptr, ptr %4, align 8, !tbaa !6
  %67 = getelementptr inbounds nuw %struct.bignum_st, ptr %66, i32 0, i32 3
  store i32 1, ptr %67, align 8, !tbaa !11
  store i32 1, ptr %3, align 4
  store i32 1, ptr %7, align 4
  br label %131

68:                                               ; preds = %46, %41
  store i32 0, ptr %6, align 4, !tbaa !15
  br label %69

69:                                               ; preds = %108, %68
  %70 = load ptr, ptr %4, align 8, !tbaa !6
  %71 = getelementptr inbounds nuw %struct.bignum_st, ptr %70, i32 0, i32 0
  %72 = load ptr, ptr %71, align 8, !tbaa !17
  %73 = load i32, ptr %6, align 4, !tbaa !15
  %74 = sext i32 %73 to i64
  %75 = getelementptr inbounds i64, ptr %72, i64 %74
  %76 = load i64, ptr %75, align 8, !tbaa !19
  %77 = load i64, ptr %5, align 8, !tbaa !19
  %78 = icmp uge i64 %76, %77
  br i1 %78, label %79, label %89

79:                                               ; preds = %69
  %80 = load i64, ptr %5, align 8, !tbaa !19
  %81 = load ptr, ptr %4, align 8, !tbaa !6
  %82 = getelementptr inbounds nuw %struct.bignum_st, ptr %81, i32 0, i32 0
  %83 = load ptr, ptr %82, align 8, !tbaa !17
  %84 = load i32, ptr %6, align 4, !tbaa !15
  %85 = sext i32 %84 to i64
  %86 = getelementptr inbounds i64, ptr %83, i64 %85
  %87 = load i64, ptr %86, align 8, !tbaa !19
  %88 = sub i64 %87, %80
  store i64 %88, ptr %86, align 8, !tbaa !19
  br label %109

89:                                               ; preds = %69
  %90 = load ptr, ptr %4, align 8, !tbaa !6
  %91 = getelementptr inbounds nuw %struct.bignum_st, ptr %90, i32 0, i32 0
  %92 = load ptr, ptr %91, align 8, !tbaa !17
  %93 = load i32, ptr %6, align 4, !tbaa !15
  %94 = sext i32 %93 to i64
  %95 = getelementptr inbounds i64, ptr %92, i64 %94
  %96 = load i64, ptr %95, align 8, !tbaa !19
  %97 = load i64, ptr %5, align 8, !tbaa !19
  %98 = sub i64 %96, %97
  %99 = and i64 %98, -1
  %100 = load ptr, ptr %4, align 8, !tbaa !6
  %101 = getelementptr inbounds nuw %struct.bignum_st, ptr %100, i32 0, i32 0
  %102 = load ptr, ptr %101, align 8, !tbaa !17
  %103 = load i32, ptr %6, align 4, !tbaa !15
  %104 = sext i32 %103 to i64
  %105 = getelementptr inbounds i64, ptr %102, i64 %104
  store i64 %99, ptr %105, align 8, !tbaa !19
  %106 = load i32, ptr %6, align 4, !tbaa !15
  %107 = add nsw i32 %106, 1
  store i32 %107, ptr %6, align 4, !tbaa !15
  store i64 1, ptr %5, align 8, !tbaa !19
  br label %108

108:                                              ; preds = %89
  br label %69

109:                                              ; preds = %79
  %110 = load ptr, ptr %4, align 8, !tbaa !6
  %111 = getelementptr inbounds nuw %struct.bignum_st, ptr %110, i32 0, i32 0
  %112 = load ptr, ptr %111, align 8, !tbaa !17
  %113 = load i32, ptr %6, align 4, !tbaa !15
  %114 = sext i32 %113 to i64
  %115 = getelementptr inbounds i64, ptr %112, i64 %114
  %116 = load i64, ptr %115, align 8, !tbaa !19
  %117 = icmp eq i64 %116, 0
  br i1 %117, label %118, label %130

118:                                              ; preds = %109
  %119 = load i32, ptr %6, align 4, !tbaa !15
  %120 = load ptr, ptr %4, align 8, !tbaa !6
  %121 = getelementptr inbounds nuw %struct.bignum_st, ptr %120, i32 0, i32 1
  %122 = load i32, ptr %121, align 8, !tbaa !16
  %123 = sub nsw i32 %122, 1
  %124 = icmp eq i32 %119, %123
  br i1 %124, label %125, label %130

125:                                              ; preds = %118
  %126 = load ptr, ptr %4, align 8, !tbaa !6
  %127 = getelementptr inbounds nuw %struct.bignum_st, ptr %126, i32 0, i32 1
  %128 = load i32, ptr %127, align 8, !tbaa !16
  %129 = add nsw i32 %128, -1
  store i32 %129, ptr %127, align 8, !tbaa !16
  br label %130

130:                                              ; preds = %125, %118, %109
  store i32 1, ptr %3, align 4
  store i32 1, ptr %7, align 4
  br label %131

131:                                              ; preds = %130, %54, %32, %25, %12
  call void @llvm.lifetime.end.p0(i64 4, ptr %6) #4
  %132 = load i32, ptr %3, align 4
  ret i32 %132
}