; Function Attrs: nounwind uwtable
define hidden i32 @BN_sub_word(ptr noundef %0, i64 noundef %1) local_unnamed_addr #0 {
  %.not = icmp eq i64 %1, 0
  br i1 %.not, label %33, label %3

3:                                                ; preds = %2
  %4 = tail call i32 @BN_is_zero(ptr noundef %0) #4
  %.not43 = icmp eq i32 %4, 0
  br i1 %.not43, label %8, label %5

5:                                                ; preds = %3
  %6 = tail call i32 @BN_set_word(ptr noundef %0, i64 noundef %1) #4
  %.not46 = icmp eq i32 %6, 0
  br i1 %.not46, label %33, label %7

7:                                                ; preds = %5
  tail call void @BN_set_negative(ptr noundef %0, i32 noundef 1) #4
  br label %33

8:                                                ; preds = %3
  %9 = getelementptr inbounds nuw i8, ptr %0, i64 16
  %10 = load i32, ptr %9, align 8, !tbaa !6
  %.not44 = icmp eq i32 %10, 0
  br i1 %.not44, label %13, label %11

11:                                               ; preds = %8
  store i32 0, ptr %9, align 8, !tbaa !6
  %12 = tail call i32 @BN_add_word(ptr noundef nonnull %0, i64 noundef %1)
  store i32 1, ptr %9, align 8, !tbaa !6
  br label %33

13:                                               ; preds = %8
  %14 = getelementptr inbounds nuw i8, ptr %0, i64 8
  %15 = load i32, ptr %14, align 8, !tbaa !13
  %16 = icmp eq i32 %15, 1
  %.pre = load ptr, ptr %0, align 8, !tbaa !14
  %.pre58 = load i64, ptr %.pre, align 8, !tbaa !15
  %17 = icmp ult i64 %.pre58, %1
  %or.cond = select i1 %16, i1 %17, i1 false
  br i1 %or.cond, label %18, label %20

18:                                               ; preds = %13
  %19 = sub nuw i64 %1, %.pre58
  store i64 %19, ptr %.pre, align 8, !tbaa !15
  store i32 1, ptr %9, align 8, !tbaa !6
  br label %33

20:                                               ; preds = %13
  %.not4548 = icmp ult i64 %.pre58, %1
  br i1 %.not4548, label %.lr.ph.preheader, label %._crit_edge

.lr.ph.preheader:                                 ; preds = %20
  %21 = sub i64 %.pre58, %1
  br label %.lr.ph

._crit_edge.loopexit:                             ; preds = %.lr.ph
  %22 = getelementptr inbounds nuw i64, ptr %.pre, i64 %indvars.iv.next
  %23 = trunc nuw nsw i64 %indvars.iv.next to i32
  br label %._crit_edge

._crit_edge:                                      ; preds = %._crit_edge.loopexit, %20
  %.038.lcssa = phi i64 [ %1, %20 ], [ 1, %._crit_edge.loopexit ]
  %.0.lcssa = phi i32 [ 0, %20 ], [ %23, %._crit_edge.loopexit ]
  %.lcssa47 = phi ptr [ %.pre, %20 ], [ %22, %._crit_edge.loopexit ]
  %.lcssa = phi i64 [ %.pre58, %20 ], [ %31, %._crit_edge.loopexit ]
  %24 = sub nuw i64 %.lcssa, %.038.lcssa
  store i64 %24, ptr %.lcssa47, align 8, !tbaa !15
  %25 = icmp eq i64 %.lcssa, %.038.lcssa
  %26 = add nsw i32 %15, -1
  %27 = icmp eq i32 %.0.lcssa, %26
  %or.cond63 = select i1 %25, i1 %27, i1 false
  br i1 %or.cond63, label %32, label %33

.lr.ph:                                           ; preds = %.lr.ph.preheader, %.lr.ph
  %indvars.iv = phi i64 [ 0, %.lr.ph.preheader ], [ %indvars.iv.next, %.lr.ph ]
  %28 = phi i64 [ %21, %.lr.ph.preheader ], [ -1, %.lr.ph ]
  %29 = getelementptr inbounds nuw i64, ptr %.pre, i64 %indvars.iv
  store i64 %28, ptr %29, align 8, !tbaa !15
  %indvars.iv.next = add nuw nsw i64 %indvars.iv, 1
  %30 = getelementptr inbounds nuw i64, ptr %.pre, i64 %indvars.iv.next
  %31 = load i64, ptr %30, align 8, !tbaa !15
  %.not45 = icmp eq i64 %31, 0
  br i1 %.not45, label %.lr.ph, label %._crit_edge.loopexit

32:                                               ; preds = %._crit_edge
  store i32 %.0.lcssa, ptr %14, align 8, !tbaa !13
  br label %33

33:                                               ; preds = %._crit_edge, %32, %5, %7, %2, %18, %11
  %.039 = phi i32 [ %12, %11 ], [ 1, %18 ], [ 1, %2 ], [ %6, %7 ], [ 0, %5 ], [ 1, %32 ], [ 1, %._crit_edge ]
  ret i32 %.039
}